; Function Attrs: mustprogress uwtable
define dso_local void @_ZN4Luau7CodeGen3X6416callLengthHelperERNS1_13IrRegAllocX64ERNS1_18AssemblyBuilderX64Eii(ptr noundef nonnull align 8 dereferenceable(256) %0, ptr noundef nonnull align 8 dereferenceable(252) %1, i32 noundef %2, i32 noundef %3) local_unnamed_addr #0 {
  %5 = alloca %"class.Luau::CodeGen::X64::IrCallWrapperX64", align 8
  %6 = alloca %"struct.Luau::CodeGen::X64::OperandX64", align 8
  call void @llvm.lifetime.start.p0(i64 240, ptr nonnull %5) #5
  call void @_ZN4Luau7CodeGen3X6416IrCallWrapperX64C1ERNS1_13IrRegAllocX64ERNS1_18AssemblyBuilderX64Ej(ptr noundef nonnull align 8 dereferenceable(240) %5, ptr noundef nonnull align 8 dereferenceable(256) %0, ptr noundef nonnull align 8 dereferenceable(252) %1, i32 noundef -1)
  call void @_ZN4Luau7CodeGen3X6416IrCallWrapperX6411addArgumentENS1_7SizeX64ENS1_10OperandX64ENS0_4IrOpE(ptr noundef nonnull align 8 dereferenceable(240) %5, i8 noundef zeroext 4, i64 276594688, i32 0)
  %7 = shl i32 %2, 4
  %.sroa.7.0.insert.ext.i = zext i32 %7 to i64
  %.sroa.7.0.insert.shift.i = shl nuw i64 %.sroa.7.0.insert.ext.i, 32
  %.sroa.0.0.insert.insert.i = or disjoint i64 %.sroa.7.0.insert.shift.i, 276070401
  call void @_ZN4Luau7CodeGen3X6416IrCallWrapperX6411addArgumentENS1_7SizeX64ENS1_10OperandX64ENS0_4IrOpE(ptr noundef nonnull align 8 dereferenceable(240) %5, i8 noundef zeroext 4, i64 %.sroa.0.0.insert.insert.i, i32 0)
  %8 = shl i32 %3, 4
  %.sroa.7.0.insert.ext.i7 = zext i32 %8 to i64
  %.sroa.7.0.insert.shift.i8 = shl nuw i64 %.sroa.7.0.insert.ext.i7, 32
  %.sroa.0.0.insert.insert.i9 = or disjoint i64 %.sroa.7.0.insert.shift.i8, 276070401
  call void @_ZN4Luau7CodeGen3X6416IrCallWrapperX6411addArgumentENS1_7SizeX64ENS1_10OperandX64ENS0_4IrOpE(ptr noundef nonnull align 8 dereferenceable(240) %5, i8 noundef zeroext 4, i64 %.sroa.0.0.insert.insert.i9, i32 0)
  call void @llvm.lifetime.start.p0(i64 8, ptr nonnull %6) #5
  store i64 447019253761, ptr %6, align 8
  call void @_ZN4Luau7CodeGen3X6416IrCallWrapperX644callERKNS1_10OperandX64E(ptr noundef nonnull align 8 dereferenceable(240) %5, ptr noundef nonnull align 4 dereferenceable(8) %6)
  call void @llvm.lifetime.end.p0(i64 8, ptr nonnull %6) #5
  call void @_ZN4Luau7CodeGen3X6418AssemblyBuilderX643movENS1_10OperandX64ES3_(ptr noundef nonnull align 8 dereferenceable(252) %1, i64 276070400, i64 69063180289)
  call void @llvm.lifetime.end.p0(i64 240, ptr nonnull %5) #5
  ret void
}